; Function Attrs: mustprogress uwtable
define void @_ZN3zmq8object_t23send_pipe_stats_publishEPNS_5own_tEmmPNS_19endpoint_uri_pair_tE(ptr noundef nonnull readonly align 8 captures(none) dereferenceable(20) %0, ptr noundef %1, i64 noundef %2, i64 noundef %3, ptr noundef %4) local_unnamed_addr #6 align 2 {
  %6 = alloca %"struct.zmq::command_t", align 64
  call void @llvm.lifetime.start.p0(i64 64, ptr nonnull %6) #11
  store ptr %1, ptr %6, align 64, !tbaa !20
  %7 = getelementptr inbounds nuw i8, ptr %6, i64 8
  store i32 20, ptr %7, align 8, !tbaa !13
  %8 = getelementptr inbounds nuw i8, ptr %6, i64 16
  store i64 %2, ptr %8, align 16, !tbaa !17
  %9 = getelementptr inbounds nuw i8, ptr %6, i64 24
  store i64 %3, ptr %9, align 8, !tbaa !17
  %10 = getelementptr inbounds nuw i8, ptr %6, i64 32
  store ptr %4, ptr %10, align 32, !tbaa !17
  %11 = getelementptr inbounds nuw i8, ptr %0, i64 8
  %12 = load ptr, ptr %11, align 8, !tbaa !6
  %13 = getelementptr inbounds nuw i8, ptr %1, i64 16
  %14 = load i32, ptr %13, align 8, !tbaa !12
  call void @_ZN3zmq5ctx_t12send_commandEjRKNS_9command_tE(ptr noundef nonnull align 8 dereferenceable(648) %12, i32 noundef %14, ptr noundef nonnull align 64 dereferenceable(64) %6)
  call void @llvm.lifetime.end.p0(i64 64, ptr nonnull %6) #11
  ret void
}